target datalayout = "e-m:e-p270:32:32-p271:32:32-p272:64:64-i64:64-i128:128-f80:128-n8:16:32:64-S128"
target triple = "x86_64-pc-linux-gnu"

%struct.darktable_t = type { %struct.dt_codepath_t, i32, i32, ptr, ptr, ptr, ptr, ptr, ptr, ptr, ptr, ptr, ptr, ptr, ptr, ptr, ptr, ptr, ptr, ptr, ptr, ptr, ptr, ptr, ptr, ptr, ptr, ptr, ptr, ptr, [64 x %struct.dt_pthread_mutex_t], %struct.dt_pthread_mutex_t, %struct.dt_pthread_mutex_t, %struct.dt_pthread_mutex_t, %struct.dt_pthread_mutex_t, %struct.dt_pthread_mutex_t, ptr, ptr, ptr, ptr, ptr, ptr, ptr, ptr, ptr, ptr, ptr, ptr, ptr, %struct.dt_lua_state_t, ptr, double, ptr, i32, [47 x i32], i32, i32, ptr, ptr, %struct.dt_sys_resources_t, %struct.dt_backthumb_t, %struct.dt_gimp_t }
%struct.dt_codepath_t = type { i8, [3 x i8] }
%struct.dt_pthread_mutex_t = type { %union.pthread_mutex_t }
%union.pthread_mutex_t = type { %struct.__pthread_mutex_s }
%struct.__pthread_mutex_s = type { i32, i32, i32, i32, i32, i16, i16, %struct.__pthread_internal_list }
%struct.__pthread_internal_list = type { ptr, ptr }
%struct.dt_lua_state_t = type { i32 }
%struct.dt_sys_resources_t = type { i64, i64, ptr, ptr, i32 }
%struct.dt_backthumb_t = type { double, double, i32, i32, i32, i32 }
%struct.dt_gimp_t = type { i32, ptr, ptr, i32, i32 }

@darktable = external global %struct.darktable_t, align 8
@.str.9 = private unnamed_addr constant [34 x i8] c"directory for %s has not been set\00", align 1
@.str.10 = private unnamed_addr constant [7 x i8] c"%s: %s\00", align 1
@.str.11 = private unnamed_addr constant [30 x i8] c"opendir '%s' fails with: '%s'\00", align 1

; Function Attrs: nounwind uwtable
define i32 @dt_check_opendir(ptr noundef %0, ptr noundef %1) #0 {
  %3 = alloca i32, align 4
  %4 = alloca ptr, align 8
  %5 = alloca ptr, align 8
  %6 = alloca ptr, align 8
  %7 = alloca i32, align 4
  store ptr %0, ptr %4, align 8, !tbaa !6
  store ptr %1, ptr %5, align 8, !tbaa !6
  %8 = load ptr, ptr %5, align 8, !tbaa !6
  %9 = icmp ne ptr %8, null
  br i1 %9, label %20, label %10

10:                                               ; preds = %2
  br label %11

11:                                               ; preds = %10
  %12 = load i32, ptr getelementptr inbounds nuw (%struct.darktable_t, ptr @darktable, i32 0, i32 2), align 8, !tbaa !14
  %13 = xor i32 %12, -1
  %14 = and i32 0, %13
  %15 = icmp ne i32 %14, 0
  br i1 %15, label %18, label %16

16:                                               ; preds = %11
  %17 = load ptr, ptr %4, align 8, !tbaa !6
  call void (ptr, ...) @dt_print_ext(ptr noundef @.str.9, ptr noundef %17)
  br label %18

18:                                               ; preds = %16, %11
  br label %19

19:                                               ; preds = %18
  store i32 0, ptr %3, align 4
  br label %59

20:                                               ; preds = %2
  call void @llvm.lifetime.start.p0(i64 8, ptr %6) #10
  %21 = load ptr, ptr %5, align 8, !tbaa !6
  %22 = call ptr @opendir(ptr noundef %21)
  store ptr %22, ptr %6, align 8, !tbaa !64
  %23 = load ptr, ptr %6, align 8, !tbaa !64
  %24 = icmp ne ptr %23, null
  br i1 %24, label %25, label %43

25:                                               ; preds = %20
  br label %26

26:                                               ; preds = %25
  %27 = load i32, ptr getelementptr inbounds nuw (%struct.darktable_t, ptr @darktable, i32 0, i32 2), align 8, !tbaa !14
  %28 = and i32 4, %27
  %29 = icmp ne i32 %28, 0
  br i1 %29, label %30, label %38

30:                                               ; preds = %26
  %31 = load i32, ptr getelementptr inbounds nuw (%struct.darktable_t, ptr @darktable, i32 0, i32 2), align 8, !tbaa !14
  %32 = xor i32 %31, -1
  %33 = and i32 0, %32
  %34 = icmp ne i32 %33, 0
  br i1 %34, label %38, label %35

35:                                               ; preds = %30
  %36 = load ptr, ptr %4, align 8, !tbaa !6
  %37 = load ptr, ptr %5, align 8, !tbaa !6
  call void (ptr, ...) @dt_print_ext(ptr noundef @.str.10, ptr noundef %36, ptr noundef %37)
  br label %38

38:                                               ; preds = %35, %30, %26
  br label %39

39:                                               ; preds = %38
  br label %40

40:                                               ; preds = %39
  %41 = load ptr, ptr %6, align 8, !tbaa !64
  %42 = call i32 @closedir(ptr noundef %41)
  br label %57

43:                                               ; preds = %20
  br label %44

44:                                               ; preds = %43
  %45 = load i32, ptr getelementptr inbounds nuw (%struct.darktable_t, ptr @darktable, i32 0, i32 2), align 8, !tbaa !14
  %46 = xor i32 %45, -1
  %47 = and i32 0, %46
  %48 = icmp ne i32 %47, 0
  br i1 %48, label %54, label %49

49:                                               ; preds = %44
  %50 = load ptr, ptr %5, align 8, !tbaa !6
  %51 = call ptr @__errno_location() #13
  %52 = load i32, ptr %51, align 4, !tbaa !11
  %53 = call ptr @strerror(i32 noundef %52) #10
  call void (ptr, ...) @dt_print_ext(ptr noundef @.str.11, ptr noundef %50, ptr noundef %53)
  br label %54

54:                                               ; preds = %49, %44
  br label %55

55:                                               ; preds = %54
  br label %56

56:                                               ; preds = %55
  store i32 0, ptr %3, align 4
  store i32 1, ptr %7, align 4
  br label %58

57:                                               ; preds = %40
  store i32 1, ptr %3, align 4
  store i32 1, ptr %7, align 4
  br label %58

58:                                               ; preds = %57, %56
  call void @llvm.lifetime.end.p0(i64 8, ptr %6) #10
  br label %59

59:                                               ; preds = %58, %19
  %60 = load i32, ptr %3, align 4
  ret i32 %60
}