; Function Attrs: nounwind uwtable
define range(i32 0, 2) i32 @dt_check_opendir(ptr noundef %0, ptr noundef %1) local_unnamed_addr #0 {
  %.not = icmp eq ptr %1, null
  br i1 %.not, label %3, label %4

3:                                                ; preds = %2
  tail call void (ptr, ...) @dt_print_ext(ptr noundef nonnull @.str.9, ptr noundef %0) #11
  br label %16

4:                                                ; preds = %2
  %5 = tail call ptr @opendir(ptr noundef nonnull %1)
  %.not10 = icmp eq ptr %5, null
  br i1 %.not10, label %12, label %6

6:                                                ; preds = %4
  %7 = load i32, ptr getelementptr inbounds nuw (i8, ptr @darktable, i64 8), align 8, !tbaa !11
  %8 = and i32 %7, 4
  %.not11 = icmp eq i32 %8, 0
  br i1 %.not11, label %10, label %9

9:                                                ; preds = %6
  tail call void (ptr, ...) @dt_print_ext(ptr noundef nonnull @.str.10, ptr noundef %0, ptr noundef nonnull %1) #11
  br label %10

10:                                               ; preds = %9, %6
  %11 = tail call i32 @closedir(ptr noundef nonnull %5)
  br label %16

12:                                               ; preds = %4
  %13 = tail call ptr @__errno_location() #14
  %14 = load i32, ptr %13, align 4, !tbaa !6
  %15 = tail call ptr @strerror(i32 noundef %14) #11
  tail call void (ptr, ...) @dt_print_ext(ptr noundef nonnull @.str.11, ptr noundef nonnull %1, ptr noundef %15) #11
  br label %16

16:                                               ; preds = %12, %10, %3
  %.0 = phi i32 [ 0, %3 ], [ 1, %10 ], [ 0, %12 ]
  ret i32 %.0
}